target datalayout = "e-m:e-p270:32:32-p271:32:32-p272:64:64-i64:64-i128:128-f80:128-n8:16:32:64-S128"
target triple = "x86_64-pc-linux-gnu"

; Function Attrs: mustprogress nounwind uwtable
define internal noundef i32 @_ZL20lodepng_read32bitIntPKh(ptr noundef %0) #3 {
  %2 = alloca ptr, align 8
  store ptr %0, ptr %2, align 8, !tbaa !11
  %3 = load ptr, ptr %2, align 8, !tbaa !11
  %4 = getelementptr inbounds i8, ptr %3, i64 0
  %5 = load i8, ptr %4, align 1, !tbaa !45
  %6 = zext i8 %5 to i32
  %7 = shl i32 %6, 24
  %8 = load ptr, ptr %2, align 8, !tbaa !11
  %9 = getelementptr inbounds i8, ptr %8, i64 1
  %10 = load i8, ptr %9, align 1, !tbaa !45
  %11 = zext i8 %10 to i32
  %12 = shl i32 %11, 16
  %13 = or i32 %7, %12
  %14 = load ptr, ptr %2, align 8, !tbaa !11
  %15 = getelementptr inbounds i8, ptr %14, i64 2
  %16 = load i8, ptr %15, align 1, !tbaa !45
  %17 = zext i8 %16 to i32
  %18 = shl i32 %17, 8
  %19 = or i32 %13, %18
  %20 = load ptr, ptr %2, align 8, !tbaa !11
  %21 = getelementptr inbounds i8, ptr %20, i64 3
  %22 = load i8, ptr %21, align 1, !tbaa !45
  %23 = zext i8 %22 to i32
  %24 = or i32 %19, %23
  ret i32 %24
}

; Function Attrs: mustprogress nounwind uwtable
define internal noundef i32 @_ZL14lodepng_addoflmmPm(i64 noundef %0, i64 noundef %1, ptr noundef %2) #3 {
  %4 = alloca i64, align 8
  %5 = alloca i64, align 8
  %6 = alloca ptr, align 8
  store i64 %0, ptr %4, align 8, !tbaa !17
  store i64 %1, ptr %5, align 8, !tbaa !17
  store ptr %2, ptr %6, align 8, !tbaa !9
  %7 = load i64, ptr %4, align 8, !tbaa !17
  %8 = load i64, ptr %5, align 8, !tbaa !17
  %9 = add i64 %7, %8
  %10 = load ptr, ptr %6, align 8, !tbaa !9
  store i64 %9, ptr %10, align 8, !tbaa !17
  %11 = load ptr, ptr %6, align 8, !tbaa !9
  %12 = load i64, ptr %11, align 8, !tbaa !17
  %13 = load i64, ptr %4, align 8, !tbaa !17
  %14 = icmp ult i64 %12, %13
  %15 = zext i1 %14 to i32
  ret i32 %15
}

; Function Attrs: mustprogress uwtable
define noundef i32 @_Z20lodepng_chunk_lengthPKh(ptr noundef %0) #0 {
  %2 = alloca ptr, align 8
  store ptr %0, ptr %2, align 8, !tbaa !11
  %3 = load ptr, ptr %2, align 8, !tbaa !11
  %4 = call noundef i32 @_ZL20lodepng_read32bitIntPKh(ptr noundef %3)
  ret i32 %4
}

; Function Attrs: mustprogress uwtable
define noundef ptr @_Z24lodepng_chunk_next_constPKhS0_(ptr noundef %0, ptr noundef %1) #0 {
  %3 = alloca ptr, align 8
  %4 = alloca ptr, align 8
  %5 = alloca ptr, align 8
  %6 = alloca i64, align 8
  %7 = alloca i32, align 4
  %8 = alloca i64, align 8
  store ptr %0, ptr %4, align 8, !tbaa !11
  store ptr %1, ptr %5, align 8, !tbaa !11
  call void @llvm.lifetime.start.p0(i64 8, ptr %6) #17
  %9 = load ptr, ptr %5, align 8, !tbaa !11
  %10 = load ptr, ptr %4, align 8, !tbaa !11
  %11 = ptrtoint ptr %9 to i64
  %12 = ptrtoint ptr %10 to i64
  %13 = sub i64 %11, %12
  store i64 %13, ptr %6, align 8, !tbaa !17
  %14 = load ptr, ptr %4, align 8, !tbaa !11
  %15 = load ptr, ptr %5, align 8, !tbaa !11
  %16 = icmp uge ptr %14, %15
  br i1 %16, label %20, label %17

17:                                               ; preds = %2
  %18 = load i64, ptr %6, align 8, !tbaa !17
  %19 = icmp ult i64 %18, 12
  br i1 %19, label %20, label %22

20:                                               ; preds = %17, %2
  %21 = load ptr, ptr %5, align 8, !tbaa !11
  store ptr %21, ptr %3, align 8
  store i32 1, ptr %7, align 4
  br label %92

22:                                               ; preds = %17
  %23 = load ptr, ptr %4, align 8, !tbaa !11
  %24 = getelementptr inbounds i8, ptr %23, i64 0
  %25 = load i8, ptr %24, align 1, !tbaa !45
  %26 = zext i8 %25 to i32
  %27 = icmp eq i32 %26, 137
  br i1 %27, label %28, label %73

28:                                               ; preds = %22
  %29 = load ptr, ptr %4, align 8, !tbaa !11
  %30 = getelementptr inbounds i8, ptr %29, i64 1
  %31 = load i8, ptr %30, align 1, !tbaa !45
  %32 = zext i8 %31 to i32
  %33 = icmp eq i32 %32, 80
  br i1 %33, label %34, label %73

34:                                               ; preds = %28
  %35 = load ptr, ptr %4, align 8, !tbaa !11
  %36 = getelementptr inbounds i8, ptr %35, i64 2
  %37 = load i8, ptr %36, align 1, !tbaa !45
  %38 = zext i8 %37 to i32
  %39 = icmp eq i32 %38, 78
  br i1 %39, label %40, label %73

40:                                               ; preds = %34
  %41 = load ptr, ptr %4, align 8, !tbaa !11
  %42 = getelementptr inbounds i8, ptr %41, i64 3
  %43 = load i8, ptr %42, align 1, !tbaa !45
  %44 = zext i8 %43 to i32
  %45 = icmp eq i32 %44, 71
  br i1 %45, label %46, label %73

46:                                               ; preds = %40
  %47 = load ptr, ptr %4, align 8, !tbaa !11
  %48 = getelementptr inbounds i8, ptr %47, i64 4
  %49 = load i8, ptr %48, align 1, !tbaa !45
  %50 = zext i8 %49 to i32
  %51 = icmp eq i32 %50, 13
  br i1 %51, label %52, label %73

52:                                               ; preds = %46
  %53 = load ptr, ptr %4, align 8, !tbaa !11
  %54 = getelementptr inbounds i8, ptr %53, i64 5
  %55 = load i8, ptr %54, align 1, !tbaa !45
  %56 = zext i8 %55 to i32
  %57 = icmp eq i32 %56, 10
  br i1 %57, label %58, label %73

58:                                               ; preds = %52
  %59 = load ptr, ptr %4, align 8, !tbaa !11
  %60 = getelementptr inbounds i8, ptr %59, i64 6
  %61 = load i8, ptr %60, align 1, !tbaa !45
  %62 = zext i8 %61 to i32
  %63 = icmp eq i32 %62, 26
  br i1 %63, label %64, label %73

64:                                               ; preds = %58
  %65 = load ptr, ptr %4, align 8, !tbaa !11
  %66 = getelementptr inbounds i8, ptr %65, i64 7
  %67 = load i8, ptr %66, align 1, !tbaa !45
  %68 = zext i8 %67 to i32
  %69 = icmp eq i32 %68, 10
  br i1 %69, label %70, label %73

70:                                               ; preds = %64
  %71 = load ptr, ptr %4, align 8, !tbaa !11
  %72 = getelementptr inbounds i8, ptr %71, i64 8
  store ptr %72, ptr %3, align 8
  store i32 1, ptr %7, align 4
  br label %92

73:                                               ; preds = %64, %58, %52, %46, %40, %34, %28, %22
  call void @llvm.lifetime.start.p0(i64 8, ptr %8) #17
  %74 = load ptr, ptr %4, align 8, !tbaa !11
  %75 = call noundef i32 @_Z20lodepng_chunk_lengthPKh(ptr noundef %74)
  %76 = zext i32 %75 to i64
  %77 = call noundef i32 @_ZL14lodepng_addoflmmPm(i64 noundef %76, i64 noundef 12, ptr noundef %8)
  %78 = icmp ne i32 %77, 0
  br i1 %78, label %79, label %81

79:                                               ; preds = %73
  %80 = load ptr, ptr %5, align 8, !tbaa !11
  store ptr %80, ptr %3, align 8
  store i32 1, ptr %7, align 4
  br label %91

81:                                               ; preds = %73
  %82 = load i64, ptr %8, align 8, !tbaa !17
  %83 = load i64, ptr %6, align 8, !tbaa !17
  %84 = icmp ugt i64 %82, %83
  br i1 %84, label %85, label %87

85:                                               ; preds = %81
  %86 = load ptr, ptr %5, align 8, !tbaa !11
  store ptr %86, ptr %3, align 8
  store i32 1, ptr %7, align 4
  br label %91

87:                                               ; preds = %81
  %88 = load ptr, ptr %4, align 8, !tbaa !11
  %89 = load i64, ptr %8, align 8, !tbaa !17
  %90 = getelementptr inbounds nuw i8, ptr %88, i64 %89
  store ptr %90, ptr %3, align 8
  store i32 1, ptr %7, align 4
  br label %91

91:                                               ; preds = %87, %85, %79
  call void @llvm.lifetime.end.p0(i64 8, ptr %8) #17
  br label %92

92:                                               ; preds = %91, %70, %20
  call void @llvm.lifetime.end.p0(i64 8, ptr %6) #17
  %93 = load ptr, ptr %3, align 8
  ret ptr %93
}