; Function Attrs: mustprogress nofree norecurse nosync nounwind willreturn memory(argmem: read) uwtable
define noundef ptr @_Z24lodepng_chunk_next_constPKhS0_(ptr noundef %0, ptr noundef %1) local_unnamed_addr #7 {
  %3 = ptrtoint ptr %1 to i64
  %4 = ptrtoint ptr %0 to i64
  %5 = sub i64 %3, %4
  %6 = icmp uge ptr %0, %1
  %7 = icmp ult i64 %5, 12
  %or.cond = or i1 %6, %7
  br i1 %or.cond, label %58, label %8

8:                                                ; preds = %2
  %9 = load i8, ptr %0, align 1, !tbaa !18
  %10 = icmp eq i8 %9, -119
  %11 = getelementptr inbounds nuw i8, ptr %0, i64 1
  %12 = load i8, ptr %11, align 1, !tbaa !18
  %13 = icmp eq i8 %12, 80
  %or.cond25 = select i1 %10, i1 %13, i1 false
  br i1 %or.cond25, label %14, label %._crit_edge

14:                                               ; preds = %8
  %15 = getelementptr inbounds nuw i8, ptr %0, i64 2
  %16 = load i8, ptr %15, align 1, !tbaa !18
  %17 = icmp eq i8 %16, 78
  br i1 %17, label %18, label %._crit_edge

18:                                               ; preds = %14
  %19 = getelementptr inbounds nuw i8, ptr %0, i64 3
  %20 = load i8, ptr %19, align 1, !tbaa !18
  %21 = icmp eq i8 %20, 71
  br i1 %21, label %22, label %._crit_edge

22:                                               ; preds = %18
  %23 = getelementptr inbounds nuw i8, ptr %0, i64 4
  %24 = load i8, ptr %23, align 1, !tbaa !18
  %25 = icmp eq i8 %24, 13
  br i1 %25, label %26, label %._crit_edge

26:                                               ; preds = %22
  %27 = getelementptr inbounds nuw i8, ptr %0, i64 5
  %28 = load i8, ptr %27, align 1, !tbaa !18
  %29 = icmp eq i8 %28, 10
  br i1 %29, label %30, label %._crit_edge

30:                                               ; preds = %26
  %31 = getelementptr inbounds nuw i8, ptr %0, i64 6
  %32 = load i8, ptr %31, align 1, !tbaa !18
  %33 = icmp eq i8 %32, 26
  br i1 %33, label %34, label %._crit_edge

34:                                               ; preds = %30
  %35 = getelementptr inbounds nuw i8, ptr %0, i64 7
  %36 = load i8, ptr %35, align 1, !tbaa !18
  %37 = icmp eq i8 %36, 10
  br i1 %37, label %38, label %._crit_edge

38:                                               ; preds = %34
  %39 = getelementptr inbounds nuw i8, ptr %0, i64 8
  br label %58

._crit_edge:                                      ; preds = %8, %34, %30, %26, %22, %18, %14
  %40 = phi i8 [ 80, %34 ], [ 80, %30 ], [ 80, %26 ], [ 80, %22 ], [ 80, %18 ], [ 80, %14 ], [ %12, %8 ]
  %41 = zext i8 %9 to i64
  %42 = shl nuw nsw i64 %41, 24
  %43 = zext i8 %40 to i64
  %44 = shl nuw nsw i64 %43, 16
  %45 = or disjoint i64 %44, %42
  %46 = getelementptr inbounds nuw i8, ptr %0, i64 2
  %47 = load i8, ptr %46, align 1, !tbaa !18
  %48 = zext i8 %47 to i64
  %49 = shl nuw nsw i64 %48, 8
  %50 = or disjoint i64 %45, %49
  %51 = getelementptr inbounds nuw i8, ptr %0, i64 3
  %52 = load i8, ptr %51, align 1, !tbaa !18
  %53 = zext i8 %52 to i64
  %54 = or disjoint i64 %50, %53
  %55 = add nuw nsw i64 %54, 12
  %56 = icmp ugt i64 %55, %5
  %57 = getelementptr inbounds nuw i8, ptr %0, i64 %55
  %spec.select = select i1 %56, ptr %1, ptr %57
  br label %58

58:                                               ; preds = %2, %._crit_edge, %38
  %.0 = phi ptr [ %39, %38 ], [ %spec.select, %._crit_edge ], [ %1, %2 ]
  ret ptr %.0
}